; Function Attrs: mustprogress nounwind uwtable
define dso_local void @_ZNK4node9inspector8protocol10NodeWorker28AttachedToWorkerNotification5cloneEv(ptr noalias nocapture writeonly sret(%"class.std::unique_ptr.26") align 8 %agg.result, ptr noundef nonnull align 8 dereferenceable(49) %this) local_unnamed_addr #0 align 2 {
entry:
  %errors = alloca %"class.node::inspector::protocol::ErrorSupport", align 8
  %ref.tmp = alloca %"class.std::unique_ptr.10", align 8
  call void @_ZN4node9inspector8protocol12ErrorSupportC1Ev(ptr noundef nonnull align 8 dereferenceable(48) %errors) #11
  call void @_ZNK4node9inspector8protocol10NodeWorker28AttachedToWorkerNotification7toValueEv(ptr nonnull sret(%"class.std::unique_ptr.10") align 8 %ref.tmp, ptr noundef nonnull align 8 dereferenceable(49) %this)
  %0 = load ptr, ptr %ref.tmp, align 8
  call void @_ZN4node9inspector8protocol10NodeWorker28AttachedToWorkerNotification9fromValueEPNS1_5ValueEPNS1_12ErrorSupportE(ptr sret(%"class.std::unique_ptr.26") align 8 %agg.result, ptr noundef %0, ptr noundef nonnull %errors)
  %cmp.not.i = icmp eq ptr %0, null
  br i1 %cmp.not.i, label %_ZNSt10unique_ptrIN4node9inspector8protocol15DictionaryValueESt14default_deleteIS3_EED2Ev.exit, label %_ZNKSt14default_deleteIN4node9inspector8protocol15DictionaryValueEEclEPS3_.exit.i

_ZNKSt14default_deleteIN4node9inspector8protocol15DictionaryValueEEclEPS3_.exit.i: ; preds = %entry
  %vtable.i.i = load ptr, ptr %0, align 8
  %vfn.i.i = getelementptr inbounds i8, ptr %vtable.i.i, i64 24
  %1 = load ptr, ptr %vfn.i.i, align 8
  call void %1(ptr noundef nonnull align 8 dereferenceable(96) %0) #11
  br label %_ZNSt10unique_ptrIN4node9inspector8protocol15DictionaryValueESt14default_deleteIS3_EED2Ev.exit

_ZNSt10unique_ptrIN4node9inspector8protocol15DictionaryValueESt14default_deleteIS3_EED2Ev.exit: ; preds = %entry, %_ZNKSt14default_deleteIN4node9inspector8protocol15DictionaryValueEEclEPS3_.exit.i
  call void @_ZN4node9inspector8protocol12ErrorSupportD1Ev(ptr noundef nonnull align 8 dereferenceable(48) %errors) #11
  ret void
}